(lp0
(lp1
(lp2
S'4_24.jpeg'
p3
a(lp4
I448
aI448
a(lp5
S'laddu'
p6
aI71
aI95
aI290
aI308
aaaa(lp7
S'3_86.jpeg'
p8
a(lp9
I448
aI448
a(lp10
S'doda'
p11
aI240
aI43
aI446
aI325
aaaa(lp12
S'2_74.jpeg'
p13
a(lp14
I448
aI448
a(lp15
S'sandesh'
p16
aI40
aI50
aI284
aI391
aaaa(lp17
S'1_67.jpeg'
p18
a(lp19
I448
aI448
a(lp20
S'mango_sandesh'
p21
aI249
aI173
aI449
aI425
aaaa(lp22
S'2_83.jpeg'
p23
a(lp24
I448
aI448
a(lp25
g16
aI1
aI76
aI184
aI406
aaaa(lp26
S'3_53.jpeg'
p27
a(lp28
I448
aI448
a(lp29
g11
aI92
aI157
aI382
aI419
aaaa(lp30
S'2_24.jpeg'
p31
a(lp32
I448
aI448
a(lp33
g16
aI51
aI2
aI370
aI313
aaaa(lp34
S'5_54.jpeg'
p35
a(lp36
I448
aI448
a(lp37
S'kaaju_katli'
p38
aI76
aI133
aI355
aI304
aaaa(lp39
S'4_11.jpeg'
p40
a(lp41
I448
aI448
a(lp42
g6
aI68
aI75
aI311
aI351
aaaa(lp43
S'5_27.jpeg'
p44
a(lp45
I448
aI448
a(lp46
g38
aI94
aI167
aI360
aI381
aaaa(lp47
S'2_38.jpeg'
p48
a(lp49
I448
aI448
a(lp50
g16
aI162
aI3
aI448
aI382
aaaa(lp51
S'3_6.jpeg'
p52
a(lp53
I448
aI448
a(lp54
g11
aI74
aI84
aI366
aI397
aaaa(lp55
S'1_68.jpeg'
p56
a(lp57
I448
aI448
a(lp58
g21
aI248
aI174
aI448
aI431
aaaa(lp59
S'2_44.jpeg'
p60
a(lp61
I448
aI448
a(lp62
g16
aI56
aI41
aI287
aI436
aaaa(lp63
S'0_46.jpeg'
p64
a(lp65
I448
aI448
a(lp66
S'gulab_jamun'
p67
aI46
aI104
aI346
aI417
aaaa(lp68
S'2_60.jpeg'
p69
a(lp70
I448
aI448
a(lp71
g16
aI3
aI9
aI208
aI372
aaaa(lp72
S'3_75.jpeg'
p73
a(lp74
I448
aI448
a(lp75
g11
aI257
aI38
aI448
aI293
aaaa(lp76
S'2_20.jpeg'
p77
a(lp78
I448
aI448
a(lp79
g16
aI8
aI43
aI291
aI365
aaaa(lp80
S'0_48.jpeg'
p81
a(lp82
I448
aI448
a(lp83
g67
aI63
aI93
aI351
aI425
aaaa(lp84
S'4_23.jpeg'
p85
a(lp86
I448
aI448
a(lp87
g6
aI91
aI100
aI283
aI329
aaaa(lp88
S'1_77.jpeg'
p89
a(lp90
I448
aI448
a(lp91
g21
aI96
aI183
aI319
aI411
aaaa(lp92
S'4_34.jpeg'
p93
a(lp94
I448
aI448
a(lp95
g6
aI172
aI94
aI390
aI313
aaaa(lp96
S'0_52.jpeg'
p97
a(lp98
I448
aI448
a(lp99
g67
aI49
aI92
aI369
aI411
aaaa(lp100
S'4_32.jpeg'
p101
a(lp102
I448
aI448
a(lp103
g6
aI150
aI88
aI360
aI309
aaaa(lp104
S'3_46.jpeg'
p105
a(lp106
I448
aI448
a(lp107
g11
aI93
aI129
aI357
aI375
aaaa(lp108
S'1_64.jpeg'
p109
a(lp110
I448
aI448
a(lp111
g21
aI263
aI168
aI447
aI422
aaaa(lp112
S'3_88.jpeg'
p113
a(lp114
I448
aI448
a(lp115
g11
aI258
aI57
aI447
aI302
aaaa(lp116
S'3_21.jpeg'
p117
a(lp118
I448
aI448
a(lp119
g11
aI96
aI85
aI368
aI332
aaaa(lp120
S'3_8.jpeg'
p121
a(lp122
I448
aI448
a(lp123
g11
aI71
aI98
aI365
aI402
aaaa(lp124
S'1_95.jpeg'
p125
a(lp126
I448
aI448
a(lp127
g21
aI133
aI80
aI373
aI338
aaaa(lp128
S'2_94.jpeg'
p129
a(lp130
I448
aI448
a(lp131
g16
aI19
aI43
aI351
aI390
aaaa(lp132
S'3_80.jpeg'
p133
a(lp134
I448
aI448
a(lp135
g11
aI221
aI47
aI447
aI294
aaaa(lp136
S'3_55.jpeg'
p137
a(lp138
I448
aI448
a(lp139
g11
aI121
aI141
aI399
aI405
aaaa(lp140
S'2_97.jpeg'
p141
a(lp142
I448
aI448
a(lp143
g16
aI17
aI28
aI341
aI373
aaaa(lp144
S'5_70.jpeg'
p145
a(lp146
I448
aI448
a(lp147
g38
aI177
aI1
aI433
aI386
aaaa(lp148
S'2_66.jpeg'
p149
a(lp150
I448
aI448
a(lp151
g16
aI3
aI20
aI201
aI381
aaaa(lp152
S'5_96.jpeg'
p153
a(lp154
I448
aI448
a(lp155
g38
aI34
aI51
aI340
aI400
aaaa(lp156
S'4_84.jpeg'
p157
a(lp158
I448
aI448
a(lp159
g6
aI211
aI65
aI431
aI329
aaaa(lp160
S'1_6.jpeg'
p161
a(lp162
I448
aI448
a(lp163
g21
aI61
aI61
aI368
aI379
aaaa(lp164
S'1_27.jpeg'
p165
a(lp166
I448
aI448
a(lp167
g21
aI3
aI43
aI264
aI317
aaaa(lp168
S'1_47.jpeg'
p169
a(lp170
I448
aI448
a(lp171
g21
aI9
aI67
aI269
aI335
aaaa(lp172
S'2_49.jpeg'
p173
a(lp174
I448
aI448
a(lp175
g16
aI23
aI51
aI262
aI424
aaaa(lp176
S'4_46.jpeg'
p177
a(lp178
I448
aI448
a(lp179
g6
aI189
aI85
aI407
aI294
aaaa(lp180
S'4_37.jpeg'
p181
a(lp182
I448
aI448
a(lp183
g6
aI191
aI91
aI401
aI310
aaaa(lp184
S'3_48.jpeg'
p185
a(lp186
I448
aI448
a(lp187
g11
aI97
aI139
aI355
aI383
aaaa(lp188
S'3_56.jpeg'
p189
a(lp190
I448
aI448
a(lp191
g11
aI131
aI150
aI390
aI395
aaaa(lp192
S'2_42.jpeg'
p193
a(lp194
I448
aI448
a(lp195
g16
aI58
aI44
aI321
aI429
aaaa(lp196
S'0_87.jpeg'
p197
a(lp198
I448
aI448
a(lp199
g67
aI34
aI106
aI339
aI407
aaaa(lp200
S'3_47.jpeg'
p201
a(lp202
I448
aI448
a(lp203
g11
aI87
aI138
aI362
aI377
aaaa(lp204
S'4_55.jpeg'
p205
a(lp206
I448
aI448
a(lp207
g6
aI134
aI65
aI392
aI315
aaaa(lp208
S'3_73.jpeg'
p209
a(lp210
I448
aI448
a(lp211
g11
aI222
aI58
aI448
aI325
aaaa(lp212
S'1_57.jpeg'
p213
a(lp214
I448
aI448
a(lp215
g21
aI29
aI57
aI287
aI323
aaaa(lp216
S'0_53.jpeg'
p217
a(lp218
I448
aI448
a(lp219
g67
aI67
aI92
aI349
aI413
aaaa(lp220
S'0_39.jpeg'
p221
a(lp222
I448
aI448
a(lp223
g67
aI55
aI101
aI345
aI420
aaaa(lp224
S'2_28.jpeg'
p225
a(lp226
I448
aI448
a(lp227
g16
aI56
aI1
aI392
aI325
aaaa(lp228
S'4_7.jpeg'
p229
a(lp230
I448
aI448
a(lp231
g6
aI80
aI131
aI301
aI350
aaaa(lp232
S'3_79.jpeg'
p233
a(lp234
I448
aI448
a(lp235
g11
aI207
aI41
aI447
aI303
aaaa(lp236
S'0_81.jpeg'
p237
a(lp238
I448
aI448
a(lp239
g67
aI26
aI106
aI323
aI417
aaaa(lp240
S'3_15.jpeg'
p241
a(lp242
I448
aI448
a(lp243
g11
aI96
aI39
aI422
aI389
aaaa(lp244
S'0_100.jpeg'
p245
a(lp246
I448
aI448
a(lp247
g67
aI54
aI97
aI387
aI434
aaaa(lp248
S'2_95.jpeg'
p249
a(lp250
I448
aI448
a(lp251
g16
aI21
aI40
aI345
aI376
aaaa(lp252
S'5_94.jpeg'
p253
a(lp254
I448
aI448
a(lp255
g38
aI48
aI36
aI340
aI384
aaaa(lp256
S'2_39.jpeg'
p257
a(lp258
I448
aI448
a(lp259
g16
aI147
aI1
aI448
aI373
aaaa(lp260
S'3_10.jpeg'
p261
a(lp262
I448
aI448
a(lp263
g11
aI100
aI57
aI421
aI386
aaaa(lp264
S'2_89.jpeg'
p265
a(lp266
I448
aI448
a(lp267
g16
aI2
aI43
aI245
aI381
aaaa(lp268
S'5_11.jpeg'
p269
a(lp270
I448
aI448
a(lp271
g38
aI93
aI120
aI297
aI426
aaaa(lp272
S'3_82.jpeg'
p273
a(lp274
I448
aI448
a(lp275
g11
aI245
aI50
aI448
aI303
aaaa(lp276
S'3_89.jpeg'
p277
a(lp278
I448
aI448
a(lp279
g11
aI262
aI59
aI448
aI285
aaaa(lp280
S'0_41.jpeg'
p281
a(lp282
I448
aI448
a(lp283
g67
aI59
aI119
aI345
aI425
aaaa(lp284
S'0_62.jpeg'
p285
a(lp286
I448
aI448
a(lp287
g67
aI47
aI83
aI327
aI396
aaaa(lp288
S'4_91.jpeg'
p289
a(lp290
I448
aI448
a(lp291
g6
aI130
aI16
aI396
aI262
aaaa(lp292
S'4_8.jpeg'
p293
a(lp294
I448
aI448
a(lp295
g6
aI76
aI128
aI318
aI368
aaaa(lp296
S'2_26.jpeg'
p297
a(lp298
I448
aI448
a(lp299
g16
aI47
aI1
aI390
aI324
aaaa(lp300
S'0_69.jpeg'
p301
a(lp302
I448
aI448
a(lp303
g67
aI50
aI90
aI338
aI408
aaaa(lp304
S'3_40.jpeg'
p305
a(lp306
I448
aI448
a(lp307
g11
aI72
aI79
aI355
aI352
aaaa(lp308
S'3_2.jpeg'
p309
a(lp310
I448
aI448
a(lp311
g11
aI74
aI101
aI374
aI395
aaaa(lp312
S'3_27.jpeg'
p313
a(lp314
I448
aI448
a(lp315
g11
aI103
aI87
aI354
aI333
aaaa(lp316
S'1_37.jpeg'
p317
a(lp318
I448
aI448
a(lp319
g21
aI6
aI61
aI268
aI342
aaaa(lp320
S'4_43.jpeg'
p321
a(lp322
I448
aI448
a(lp323
g6
aI198
aI93
aI394
aI300
aaaa(lp324
S'2_8.jpeg'
p325
a(lp326
I448
aI448
a(lp327
g16
aI50
aI12
aI407
aI381
aaaa(lp328
S'5_46.jpeg'
p329
a(lp330
I448
aI448
a(lp331
g38
aI87
aI143
aI362
aI319
aaaa(lp332
S'3_94.jpeg'
p333
a(lp334
I448
aI448
a(lp335
g11
aI192
aI146
aI448
aI385
aaaa(lp336
S'5_63.jpeg'
p337
a(lp338
I448
aI448
a(lp339
g38
aI142
aI122
aI413
aI298
aaaa(lp340
S'2_54.jpeg'
p341
a(lp342
I448
aI448
a(lp343
g16
aI2
aI5
aI217
aI369
aaaa(lp344
S'2_10.jpeg'
p345
a(lp346
I448
aI448
a(lp347
g16
aI60
aI12
aI401
aI375
aaaa(lp348
S'5_40.jpeg'
p349
a(lp350
I448
aI448
a(lp351
g38
aI37
aI146
aI406
aI388
aaaa(lp352
S'4_31.jpeg'
p353
a(lp354
I448
aI448
a(lp355
g6
aI143
aI91
aI350
aI306
aaaa(lp356
S'0_77.jpeg'
p357
a(lp358
I448
aI448
a(lp359
g67
aI20
aI86
aI318
aI400
aaaa(lp360
S'0_65.jpeg'
p361
a(lp362
I448
aI448
a(lp363
g67
aI40
aI95
aI329
aI400
aaaa(lp364
S'0_51.jpeg'
p365
a(lp366
I448
aI448
a(lp367
g67
aI54
aI89
aI349
aI406
aaaa(lp368
S'4_65.jpeg'
p369
a(lp370
I448
aI448
a(lp371
g6
aI137
aI135
aI400
aI382
aaaa(lp372
S'4_62.jpeg'
p373
a(lp374
I448
aI448
a(lp375
g6
aI137
aI133
aI369
aI376
aaaa(lp376
S'1_87.jpeg'
p377
a(lp378
I448
aI448
a(lp379
g21
aI145
aI121
aI370
aI368
aaaa(lp380
S'4_26.jpeg'
p381
a(lp382
I448
aI448
a(lp383
g6
aI75
aI92
aI300
aI310
aaaa(lp384
S'2_35.jpeg'
p385
a(lp386
I448
aI448
a(lp387
g16
aI120
aI20
aI448
aI404
aaaa(lp388
S'0_34.jpeg'
p389
a(lp390
I448
aI448
a(lp391
g67
aI59
aI99
aI359
aI416
aaaa(lp392
S'5_51.jpeg'
p393
a(lp394
I448
aI448
a(lp395
g38
aI76
aI138
aI369
aI291
aaaa(lp396
S'1_36.jpeg'
p397
a(lp398
I448
aI448
a(lp399
g21
aI3
aI62
aI271
aI346
aaaa(lp400
S'5_49.jpeg'
p401
a(lp402
I448
aI448
a(lp403
g38
aI68
aI136
aI359
aI304
aaaa(lp404
S'3_38.jpeg'
p405
a(lp406
I448
aI448
a(lp407
g11
aI74
aI71
aI347
aI341
aaaa(lp408
S'2_30.jpeg'
p409
a(lp410
I448
aI448
a(lp411
g16
aI58
aI8
aI403
aI340
aaaa(lp412
S'1_34.jpeg'
p413
a(lp414
I448
aI448
a(lp415
g21
aI4
aI56
aI265
aI333
aaaa(lp416
S'4_53.jpeg'
p417
a(lp418
I448
aI448
a(lp419
g6
aI136
aI60
aI387
aI314
aaaa(lp420
S'0_79.jpeg'
p421
a(lp422
I448
aI448
a(lp423
g67
aI33
aI93
aI317
aI403
aaaa(lp424
S'4_38.jpeg'
p425
a(lp426
I448
aI448
a(lp427
g6
aI178
aI74
aI392
aI303
aaaa(lp428
S'3_97.jpeg'
p429
a(lp430
I448
aI448
a(lp431
g11
aI223
aI152
aI447
aI382
aaaa(lp432
S'3_36.jpeg'
p433
a(lp434
I448
aI448
a(lp435
g11
aI75
aI71
aI349
aI337
aaaa(lp436
S'2_91.jpeg'
p437
a(lp438
I448
aI448
a(lp439
g16
aI25
aI44
aI363
aI396
aaaa(lp440
S'1_8.jpeg'
p441
a(lp442
I448
aI448
a(lp443
g21
aI64
aI64
aI378
aI392
aaaa(lp444
S'5_1.jpeg'
p445
a(lp446
I448
aI448
a(lp447
g38
aI116
aI76
aI316
aI406
aaaa(lp448
S'0_12.jpeg'
p449
a(lp450
I448
aI448
a(lp451
g67
aI80
aI95
aI365
aI409
aaaa(lp452
S'2_9.jpeg'
p453
a(lp454
I448
aI448
a(lp455
g16
aI67
aI14
aI405
aI382
aaaa(lp456
S'4_6.jpeg'
p457
a(lp458
I448
aI448
a(lp459
g6
aI81
aI139
aI286
aI345
aaaa(lp460
S'1_98.jpeg'
p461
a(lp462
I448
aI448
a(lp463
g21
aI116
aI77
aI370
aI329
aaaa(lp464
S'2_18.jpeg'
p465
a(lp466
I448
aI448
a(lp467
g16
aI8
aI45
aI294
aI359
aaaa(lp468
S'5_22.jpeg'
p469
a(lp470
I448
aI448
a(lp471
g38
aI100
aI161
aI356
aI396
aaaa(lp472
S'3_11.jpeg'
p473
a(lp474
I448
aI448
a(lp475
g11
aI95
aI53
aI421
aI409
aaaa(lp476
S'2_29.jpeg'
p477
a(lp478
I448
aI448
a(lp479
g16
aI47
aI3
aI397
aI334
aaaa(lp480
S'5_18.jpeg'
p481
a(lp482
I448
aI448
a(lp483
g38
aI112
aI134
aI300
aI429
aaaa(lp484
S'3_68.jpeg'
p485
a(lp486
I448
aI448
a(lp487
g11
aI209
aI90
aI447
aI358
aaaa(lp488
S'0_85.jpeg'
p489
a(lp490
I448
aI448
a(lp491
g67
aI41
aI107
aI326
aI417
aaaa(lp492
S'2_68.jpeg'
p493
a(lp494
I448
aI448
a(lp495
g16
aI1
aI12
aI206
aI378
aaaa(lp496
S'4_71.jpeg'
p497
a(lp498
I448
aI448
a(lp499
g6
aI155
aI179
aI369
aI410
aaaa(lp500
S'0_56.jpeg'
p501
a(lp502
I448
aI448
a(lp503
g67
aI62
aI107
aI346
aI417
aaaa(lp504
S'3_12.jpeg'
p505
a(lp506
I448
aI448
a(lp507
g11
aI96
aI51
aI420
aI378
aaaa(lp508
S'2_33.jpeg'
p509
a(lp510
I448
aI448
a(lp511
g16
aI51
aI51
aI437
aI417
aaaa(lp512
S'0_82.jpeg'
p513
a(lp514
I448
aI448
a(lp515
g67
aI25
aI108
aI329
aI423
aaaa(lp516
S'0_9.jpeg'
p517
a(lp518
I448
aI448
a(lp519
g67
aI89
aI99
aI377
aI406
aaaa(lp520
S'4_4.jpeg'
p521
a(lp522
I448
aI448
a(lp523
g6
aI60
aI132
aI293
aI360
aaaa(lp524
S'0_35.jpeg'
p525
a(lp526
I448
aI448
a(lp527
g67
aI65
aI93
aI353
aI418
aaaa(lp528
S'5_68.jpeg'
p529
a(lp530
I448
aI448
a(lp531
g38
aI169
aI3
aI428
aI391
aaaa(lp532
S'3_5.jpeg'
p533
a(lp534
I448
aI448
a(lp535
g11
aI73
aI75
aI378
aI405
aaaa(lp536
S'2_92.jpeg'
p537
a(lp538
I448
aI448
a(lp539
g16
aI30
aI48
aI357
aI389
aaaa(lp540
S'5_32.jpeg'
p541
a(lp542
I448
aI448
a(lp543
g38
aI88
aI159
aI370
aI391
aaaa(lp544
S'2_23.jpeg'
p545
a(lp546
I448
aI448
a(lp547
g16
aI40
aI0
aI379
aI318
aaaa(lp548
S'4_64.jpeg'
p549
a(lp550
I448
aI448
a(lp551
g6
aI142
aI127
aI378
aI368
aaaa(lp552
S'1_24.jpeg'
p553
a(lp554
I448
aI448
a(lp555
g21
aI4
aI36
aI262
aI315
aaaa(lp556
S'4_41.jpeg'
p557
a(lp558
I448
aI448
a(lp559
g6
aI200
aI97
aI381
aI298
aaaa(lp560
S'4_76.jpeg'
p561
a(lp562
I448
aI448
a(lp563
g6
aI162
aI94
aI392
aI333
aaaa(lp564
S'1_60.jpeg'
p565
a(lp566
I448
aI448
a(lp567
g21
aI238
aI147
aI448
aI416
aaaa(lp568
S'5_13.jpeg'
p569
a(lp570
I448
aI448
a(lp571
g38
aI93
aI127
aI303
aI432
aaaa(lp572
S'4_85.jpeg'
p573
a(lp574
I448
aI448
a(lp575
g6
aI195
aI60
aI425
aI299
aaaa(lp576
S'3_83.jpeg'
p577
a(lp578
I448
aI448
a(lp579
g11
aI239
aI56
aI448
aI295
aaaa(lp580
S'0_6.jpeg'
p581
a(lp582
I448
aI448
a(lp583
g67
aI80
aI88
aI397
aI412
aaaa(lp584
S'3_39.jpeg'
p585
a(lp586
I448
aI448
a(lp587
g11
aI81
aI81
aI348
aI326
aaaa(lp588
S'1_32.jpeg'
p589
a(lp590
I448
aI448
a(lp591
g21
aI5
aI53
aI263
aI324
aaaa(lp592
S'0_89.jpeg'
p593
a(lp594
I448
aI448
a(lp595
g67
aI48
aI92
aI348
aI415
aaaa(lp596
S'5_36.jpeg'
p597
a(lp598
I448
aI448
a(lp599
g38
aI20
aI152
aI404
aI405
aaaa(lp600
S'2_62.jpeg'
p601
a(lp602
I448
aI448
a(lp603
g16
aI1
aI15
aI205
aI377
aaaa(lp604
S'0_91.jpeg'
p605
a(lp606
I448
aI448
a(lp607
g67
aI58
aI87
aI355
aI408
aaaa(lp608
S'3_9.jpeg'
p609
a(lp610
I448
aI448
a(lp611
g11
aI84
aI70
aI396
aI407
aaaa(lp612
S'3_78.jpeg'
p613
a(lp614
I448
aI448
a(lp615
g11
aI212
aI50
aI448
aI301
aaaa(lp616
S'2_5.jpeg'
p617
a(lp618
I448
aI448
a(lp619
g16
aI48
aI15
aI408
aI379
aaaa(lp620
S'0_18.jpeg'
p621
a(lp622
I448
aI448
a(lp623
g67
aI57
aI68
aI371
aI408
aaaa(lp624
S'1_53.jpeg'
p625
a(lp626
I448
aI448
a(lp627
g21
aI12
aI71
aI288
aI335
aaaa(lp628
S'5_79.jpeg'
p629
a(lp630
I448
aI448
a(lp631
g38
aI33
aI71
aI302
aI431
aaaa(lp632
S'4_88.jpeg'
p633
a(lp634
I448
aI448
a(lp635
g6
aI179
aI27
aI421
aI273
aaaa(lp636
S'5_9.jpeg'
p637
a(lp638
I448
aI448
a(lp639
g38
aI116
aI70
aI316
aI402
aaaa(lp640
S'5_98.jpeg'
p641
a(lp642
I448
aI448
a(lp643
g38
aI32
aI53
aI326
aI402
aaaa(lp644
S'2_90.jpeg'
p645
a(lp646
I448
aI448
a(lp647
g16
aI3
aI25
aI250
aI361
aaaa(lp648
S'1_22.jpeg'
p649
a(lp650
I448
aI448
a(lp651
g21
aI2
aI31
aI256
aI307
aaaa(lp652
S'2_56.jpeg'
p653
a(lp654
I448
aI448
a(lp655
g16
aI1
aI6
aI196
aI363
aaaa(lp656
S'0_49.jpeg'
p657
a(lp658
I448
aI448
a(lp659
g67
aI49
aI91
aI348
aI418
aaaa(lp660
S'3_17.jpeg'
p661
a(lp662
I448
aI448
a(lp663
g11
aI95
aI50
aI422
aI385
aaaa(lp664
S'5_97.jpeg'
p665
a(lp666
I448
aI448
a(lp667
g38
aI35
aI43
aI326
aI392
aaaa(lp668
S'4_99.jpeg'
p669
a(lp670
I448
aI448
a(lp671
g6
aI80
aI68
aI317
aI333
aaaa(lp672
S'1_5.jpeg'
p673
a(lp674
I448
aI448
a(lp675
g21
aI62
aI62
aI376
aI385
aaaa(lp676
S'0_14.jpeg'
p677
a(lp678
I448
aI448
a(lp679
g67
aI72
aI94
aI363
aI419
aaaa(lp680
S'5_34.jpeg'
p681
a(lp682
I448
aI448
a(lp683
g38
aI32
aI178
aI395
aI387
aaaa(lp684
S'3_84.jpeg'
p685
a(lp686
I448
aI448
a(lp687
g11
aI236
aI52
aI448
aI305
aaaa(lp688
S'3_16.jpeg'
p689
a(lp690
I448
aI448
a(lp691
g11
aI105
aI54
aI422
aI390
aaaa(lp692
S'3_13.jpeg'
p693
a(lp694
I448
aI448
a(lp695
g11
aI99
aI50
aI419
aI391
aaaa(lp696
S'3_29.jpeg'
p697
a(lp698
I448
aI448
a(lp699
g11
aI89
aI77
aI363
aI312
aaaa(lp700
S'0_1.jpeg'
p701
a(lp702
I448
aI448
a(lp703
g67
aI96
aI104
aI415
aI426
aaaa(lp704
S'2_48.jpeg'
p705
a(lp706
I448
aI448
a(lp707
g16
aI33
aI57
aI271
aI436
aaaa(lp708
S'0_24.jpeg'
p709
a(lp710
I448
aI448
a(lp711
g67
aI69
aI83
aI366
aI404
aaaa(lp712
S'5_92.jpeg'
p713
a(lp714
I448
aI448
a(lp715
g38
aI47
aI37
aI335
aI377
aaaa(lp716
S'3_57.jpeg'
p717
a(lp718
I448
aI448
a(lp719
g11
aI133
aI141
aI387
aI377
aaaa(lp720
S'0_2.jpeg'
p721
a(lp722
I448
aI448
a(lp723
g67
aI99
aI101
aI393
aI407
aaaa(lp724
S'5_6.jpeg'
p725
a(lp726
I448
aI448
a(lp727
g38
aI108
aI77
aI315
aI403
aaaa(lp728
S'0_75.jpeg'
p729
a(lp730
I448
aI448
a(lp731
g67
aI36
aI94
aI331
aI399
aaaa(lp732
S'5_42.jpeg'
p733
a(lp734
I448
aI448
a(lp735
g38
aI46
aI159
aI406
aI380
aaaa(lp736
S'2_53.jpeg'
p737
a(lp738
I448
aI448
a(lp739
g16
aI2
aI5
aI222
aI367
aaaa(lp740
S'1_89.jpeg'
p741
a(lp742
I448
aI448
a(lp743
g21
aI148
aI120
aI376
aI371
aaaa(lp744
S'5_26.jpeg'
p745
a(lp746
I448
aI448
a(lp747
g38
aI89
aI158
aI357
aI385
aaaa(lp748
S'2_50.jpeg'
p749
a(lp750
I448
aI448
a(lp751
g16
aI24
aI44
aI262
aI428
aaaa(lp752
S'1_10.jpeg'
p753
a(lp754
I448
aI448
a(lp755
g21
aI2
aI93
aI203
aI361
aaaa(lp756
S'4_56.jpeg'
p757
a(lp758
I448
aI448
a(lp759
g6
aI124
aI96
aI370
aI362
aaaa(lp760
S'0_54.jpeg'
p761
a(lp762
I448
aI448
a(lp763
g67
aI64
aI95
aI350
aI416
aaaa(lp764
S'2_57.jpeg'
p765
a(lp766
I448
aI448
a(lp767
g16
aI2
aI9
aI199
aI368
aaaa(lp768
S'1_21.jpeg'
p769
a(lp770
I448
aI448
a(lp771
g21
aI2
aI25
aI254
aI298
aaaa(lp772
S'4_87.jpeg'
p773
a(lp774
I448
aI448
a(lp775
g6
aI180
aI39
aI427
aI290
aaaa(lp776
S'1_46.jpeg'
p777
a(lp778
I448
aI448
a(lp779
g21
aI16
aI65
aI270
aI336
aaaa(lp780
S'2_43.jpeg'
p781
a(lp782
I448
aI448
a(lp783
g16
aI60
aI39
aI283
aI421
aaaa(lp784
S'5_78.jpeg'
p785
a(lp786
I448
aI448
a(lp787
g38
aI31
aI75
aI304
aI432
aaaa(lp788
S'0_76.jpeg'
p789
a(lp790
I448
aI448
a(lp791
g67
aI33
aI96
aI325
aI404
aaaa(lp792
S'1_33.jpeg'
p793
a(lp794
I448
aI448
a(lp795
g21
aI8
aI57
aI267
aI330
aaaa(lp796
S'3_34.jpeg'
p797
a(lp798
I448
aI448
a(lp799
g11
aI82
aI76
aI342
aI329
aaaa(lp800
S'4_20.jpeg'
p801
a(lp802
I448
aI448
a(lp803
g6
aI35
aI106
aI295
aI334
aaaa(lp804
S'0_30.jpeg'
p805
a(lp806
I448
aI448
a(lp807
g67
aI70
aI89
aI371
aI409
aaaa(lp808
S'5_64.jpeg'
p809
a(lp810
I448
aI448
a(lp811
g38
aI139
aI132
aI419
aI299
aaaa(lp812
S'4_45.jpeg'
p813
a(lp814
I448
aI448
a(lp815
g6
aI189
aI86
aI398
aI296
aaaa(lp816
S'5_44.jpeg'
p817
a(lp818
I448
aI448
a(lp819
g38
aI86
aI149
aI367
aI322
aaaa(lp820
S'3_1.jpeg'
p821
a(lp822
I448
aI448
a(lp823
g11
aI75
aI96
aI375
aI401
aaaa(lp824
S'4_17.jpeg'
p825
a(lp826
I448
aI448
a(lp827
g6
aI14
aI99
aI229
aI334
aaaa(lp828
S'5_71.jpeg'
p829
a(lp830
I448
aI448
a(lp831
g38
aI176
aI5
aI436
aI388
aaaa(lp832
S'1_85.jpeg'
p833
a(lp834
I448
aI448
a(lp835
g21
aI139
aI129
aI370
aI366
aaaa(lp836
S'0_32.jpeg'
p837
a(lp838
I448
aI448
a(lp839
g67
aI55
aI86
aI366
aI414
aaaa(lp840
S'1_35.jpeg'
p841
a(lp842
I448
aI448
a(lp843
g21
aI7
aI58
aI265
aI335
aaaa(lp844
S'5_73.jpeg'
p845
a(lp846
I448
aI448
a(lp847
g38
aI169
aI4
aI432
aI410
aaaa(lp848
S'2_1.jpeg'
p849
a(lp850
I448
aI448
a(lp851
g16
aI48
aI10
aI408
aI387
aaaa(lp852
S'4_78.jpeg'
p853
a(lp854
I448
aI448
a(lp855
g6
aI185
aI84
aI415
aI368
aaaa(lp856
S'0_90.jpeg'
p857
a(lp858
I448
aI448
a(lp859
g67
aI51
aI90
aI350
aI413
aaaa(lp860
S'5_4.jpeg'
p861
a(lp862
I448
aI448
a(lp863
g38
aI103
aI72
aI318
aI404
aaaa(lp864
S'1_71.jpeg'
p865
a(lp866
I448
aI448
a(lp867
g21
aI77
aI200
aI320
aI430
aaaa(lp868
S'2_82.jpeg'
p869
a(lp870
I448
aI448
a(lp871
g16
aI2
aI82
aI176
aI403
aaaa(lp872
S'0_15.jpeg'
p873
a(lp874
I448
aI448
a(lp875
g67
aI68
aI93
aI359
aI402
aaaa(lp876
S'4_1.jpeg'
p877
a(lp878
I448
aI448
a(lp879
g6
aI64
aI140
aI312
aI354
aaaa(lp880
S'0_37.jpeg'
p881
a(lp882
I448
aI448
a(lp883
g67
aI61
aI111
aI349
aI418
aaaa(lp884
S'5_30.jpeg'
p885
a(lp886
I448
aI448
a(lp887
g38
aI90
aI160
aI363
aI388
aaaa(lp888
S'4_98.jpeg'
p889
a(lp890
I448
aI448
a(lp891
g6
aI69
aI75
aI322
aI335
aaaa(lp892
S'3_49.jpeg'
p893
a(lp894
I448
aI448
a(lp895
g11
aI107
aI158
aI353
aI416
aaaa(lp896
S'0_25.jpeg'
p897
a(lp898
I448
aI448
a(lp899
g67
aI63
aI91
aI366
aI403
aaaa(lp900
S'1_80.jpeg'
p901
a(lp902
I448
aI448
a(lp903
g21
aI91
aI164
aI323
aI395
aaaa(lp904
S'1_31.jpeg'
p905
a(lp906
I448
aI448
a(lp907
g21
aI8
aI52
aI265
aI327
aaaa(lp908
S'4_14.jpeg'
p909
a(lp910
I448
aI448
a(lp911
g6
aI15
aI93
aI249
aI354
aaaa(lp912
S'1_17.jpeg'
p913
a(lp914
I448
aI448
a(lp915
g21
aI3
aI32
aI236
aI306
aaaa(lp916
S'5_67.jpeg'
p917
a(lp918
I448
aI448
a(lp919
g38
aI184
aI2
aI427
aI403
aaaa(lp920
S'4_81.jpeg'
p921
a(lp922
I448
aI448
a(lp923
g6
aI211
aI105
aI436
aI393
aaaa(lp924
S'5_90.jpeg'
p925
a(lp926
I448
aI448
a(lp927
g38
aI46
aI35
aI335
aI388
aaaa(lp928
S'2_22.jpeg'
p929
a(lp930
I448
aI448
a(lp931
g16
aI37
aI1
aI351
aI330
aaaa(lp932
S'3_37.jpeg'
p933
a(lp934
I448
aI448
a(lp935
g11
aI74
aI59
aI364
aI333
aaaa(lp936
S'1_4.jpeg'
p937
a(lp938
I448
aI448
a(lp939
g21
aI50
aI69
aI385
aI378
aaaa(lp940
S'0_64.jpeg'
p941
a(lp942
I448
aI448
a(lp943
g67
aI32
aI84
aI331
aI406
aaaa(lp944
S'4_82.jpeg'
p945
a(lp946
I448
aI448
a(lp947
g6
aI214
aI101
aI436
aI352
aaaa(lp948
S'0_61.jpeg'
p949
a(lp950
I448
aI448
a(lp951
g67
aI54
aI90
aI330
aI393
aaaa(lp952
S'1_97.jpeg'
p953
a(lp954
I448
aI448
a(lp955
g21
aI125
aI63
aI369
aI334
aaaa(lp956
S'1_86.jpeg'
p957
a(lp958
I448
aI448
a(lp959
g21
aI143
aI124
aI376
aI365
aaaa(lp960
S'0_21.jpeg'
p961
a(lp962
I448
aI448
a(lp963
g67
aI46
aI93
aI361
aI405
aaaa(lp964
S'4_83.jpeg'
p965
a(lp966
I448
aI448
a(lp967
g6
aI222
aI92
aI438
aI355
aaaa(lp968
S'3_28.jpeg'
p969
a(lp970
I448
aI448
a(lp971
g11
aI103
aI73
aI353
aI319
aaaa(lp972
S'3_41.jpeg'
p973
a(lp974
I448
aI448
a(lp975
g11
aI81
aI86
aI345
aI326
aaaa(lp976
S'4_67.jpeg'
p977
a(lp978
I448
aI448
a(lp979
g6
aI149
aI141
aI376
aI370
aaaa(lp980
S'1_99.jpeg'
p981
a(lp982
I448
aI448
a(lp983
g21
aI133
aI60
aI366
aI335
aaaa(lp984
S'0_11.jpeg'
p985
a(lp986
I448
aI448
a(lp987
g67
aI80
aI78
aI396
aI417
aaaa(lp988
S'1_73.jpeg'
p989
a(lp990
I448
aI448
a(lp991
g21
aI88
aI203
aI325
aI431
aaaa(lp992
S'5_77.jpeg'
p993
a(lp994
I448
aI448
a(lp995
g38
aI29
aI67
aI299
aI428
aaaa(lp996
S'5_29.jpeg'
p997
a(lp998
I448
aI448
a(lp999
g38
aI88
aI155
aI360
aI386
aaaa(lp1000
S'4_77.jpeg'
p1001
a(lp1002
I448
aI448
a(lp1003
g6
aI171
aI87
aI396
aI367
aaaa(lp1004
S'1_70.jpeg'
p1005
a(lp1006
I448
aI448
a(lp1007
g21
aI237
aI161
aI446
aI414
aaaa(lp1008
S'5_3.jpeg'
p1009
a(lp1010
I448
aI448
a(lp1011
g38
aI110
aI67
aI310
aI405
aaaa(lp1012
S'2_85.jpeg'
p1013
a(lp1014
I448
aI448
a(lp1015
g16
aI1
aI57
aI192
aI414
aaaa(lp1016
S'5_38.jpeg'
p1017
a(lp1018
I448
aI448
a(lp1019
g38
aI28
aI159
aI395
aI383
aaaa(lp1020
S'3_14.jpeg'
p1021
a(lp1022
I448
aI448
a(lp1023
g11
aI104
aI51
aI420
aI381
aaaa(lp1024
S'5_100.jpeg'
p1025
a(lp1026
I448
aI448
a(lp1027
g38
aI28
aI55
aI320
aI409
aaaa(lp1028
S'0_66.jpeg'
p1029
a(lp1030
I448
aI448
a(lp1031
g67
aI33
aI81
aI332
aI402
aaaa(lp1032
S'3_26.jpeg'
p1033
a(lp1034
I448
aI448
a(lp1035
g11
aI106
aI77
aI350
aI329
aaaa(lp1036
S'1_41.jpeg'
p1037
a(lp1038
I448
aI448
a(lp1039
g21
aI11
aI72
aI260
aI332
aaaa(lp1040
S'1_74.jpeg'
p1041
a(lp1042
I448
aI448
a(lp1043
g21
aI90
aI201
aI322
aI428
aaaa(lp1044
S'1_19.jpeg'
p1045
a(lp1046
I448
aI448
a(lp1047
g21
aI3
aI23
aI249
aI299
aaaa(lp1048
S'2_63.jpeg'
p1049
a(lp1050
I448
aI448
a(lp1051
g16
aI2
aI15
aI210
aI377
aaaa(lp1052
S'3_19.jpeg'
p1053
a(lp1054
I448
aI448
a(lp1055
g11
aI94
aI56
aI429
aI392
aaaa(lp1056
S'2_41.jpeg'
p1057
a(lp1058
I448
aI448
a(lp1059
g16
aI48
aI37
aI327
aI418
aaaa(lp1060
S'0_95.jpeg'
p1061
a(lp1062
I448
aI448
a(lp1063
g67
aI53
aI85
aI346
aI422
aaaa(lp1064
S'5_95.jpeg'
p1065
a(lp1066
I448
aI448
a(lp1067
g38
aI46
aI38
aI336
aI410
aaaa(lp1068
S'0_72.jpeg'
p1069
a(lp1070
I448
aI448
a(lp1071
g67
aI34
aI89
aI338
aI415
aaaa(lp1072
S'4_72.jpeg'
p1073
a(lp1074
I448
aI448
a(lp1075
g6
aI157
aI200
aI372
aI415
aaaa(lp1076
S'0_97.jpeg'
p1077
a(lp1078
I448
aI448
a(lp1079
g67
aI58
aI106
aI351
aI413
aaaa(lp1080
S'5_83.jpeg'
p1081
a(lp1082
I448
aI448
a(lp1083
g38
aI38
aI69
aI314
aI417
aaaa(lp1084
S'5_84.jpeg'
p1085
a(lp1086
I448
aI448
a(lp1087
g38
aI42
aI70
aI316
aI420
aaaa(lp1088
S'2_76.jpeg'
p1089
a(lp1090
I448
aI448
a(lp1091
g16
aI40
aI61
aI275
aI378
aaaa(lp1092
S'3_93.jpeg'
p1093
a(lp1094
I448
aI448
a(lp1095
g11
aI185
aI123
aI447
aI366
aaaa(lp1096
S'1_43.jpeg'
p1097
a(lp1098
I448
aI448
a(lp1099
g21
aI10
aI66
aI265
aI342
aaaa(lp1100
S'5_31.jpeg'
p1101
a(lp1102
I448
aI448
a(lp1103
g38
aI87
aI162
aI365
aI377
aaaa(lp1104
S'5_89.jpeg'
p1105
a(lp1106
I448
aI448
a(lp1107
g38
aI48
aI40
aI332
aI387
aaaa(lp1108
S'4_100.jpeg'
p1109
a(lp1110
I448
aI448
a(lp1111
g6
aI65
aI69
aI325
aI325
aaaa(lp1112
S'2_98.jpeg'
p1113
a(lp1114
I448
aI448
a(lp1115
g16
aI11
aI18
aI338
aI362
aaaa(lp1116
S'1_18.jpeg'
p1117
a(lp1118
I448
aI448
a(lp1119
g21
aI4
aI32
aI245
aI297
aaaa(lp1120
S'0_3.jpeg'
p1121
a(lp1122
I448
aI448
a(lp1123
g67
aI95
aI87
aI399
aI418
aaaa(lp1124
S'2_93.jpeg'
p1125
a(lp1126
I448
aI448
a(lp1127
g16
aI18
aI44
aI352
aI395
aaaa(lp1128
S'0_58.jpeg'
p1129
a(lp1130
I448
aI448
a(lp1131
g67
aI58
aI92
aI342
aI412
aaaa(lp1132
S'5_35.jpeg'
p1133
a(lp1134
I448
aI448
a(lp1135
g38
aI37
aI169
aI389
aI416
aaaa(lp1136
S'0_33.jpeg'
p1137
a(lp1138
I448
aI448
a(lp1139
g67
aI52
aI98
aI362
aI417
aaaa(lp1140
S'1_92.jpeg'
p1141
a(lp1142
I448
aI448
a(lp1143
g21
aI144
aI118
aI372
aI377
aaaa(lp1144
S'2_52.jpeg'
p1145
a(lp1146
I448
aI448
a(lp1147
g16
aI3
aI13
aI253
aI385
aaaa(lp1148
S'5_85.jpeg'
p1149
a(lp1150
I448
aI448
a(lp1151
g38
aI41
aI59
aI314
aI412
aaaa(lp1152
S'4_57.jpeg'
p1153
a(lp1154
I448
aI448
a(lp1155
g6
aI126
aI102
aI372
aI375
aaaa(lp1156
S'1_50.jpeg'
p1157
a(lp1158
I448
aI448
a(lp1159
g21
aI11
aI67
aI259
aI316
aaaa(lp1160
S'1_56.jpeg'
p1161
a(lp1162
I448
aI448
a(lp1163
g21
aI28
aI65
aI289
aI321
aaaa(lp1164
S'0_47.jpeg'
p1165
a(lp1166
I448
aI448
a(lp1167
g67
aI58
aI103
aI343
aI420
aaaa(lp1168
S'4_96.jpeg'
p1169
a(lp1170
I448
aI448
a(lp1171
g6
aI70
aI100
aI326
aI352
aaaa(lp1172
S'3_71.jpeg'
p1173
a(lp1174
I448
aI448
a(lp1175
g11
aI204
aI74
aI448
aI330
aaaa(lp1176
S'1_48.jpeg'
p1177
a(lp1178
I448
aI448
a(lp1179
g21
aI14
aI65
aI267
aI311
aaaa(lp1180
S'1_25.jpeg'
p1181
a(lp1182
I448
aI448
a(lp1183
g21
aI4
aI45
aI264
aI317
aaaa(lp1184
S'0_50.jpeg'
p1185
a(lp1186
I448
aI448
a(lp1187
g67
aI57
aI101
aI350
aI413
aaaa(lp1188
S'0_88.jpeg'
p1189
a(lp1190
I448
aI448
a(lp1191
g67
aI44
aI95
aI353
aI408
aaaa(lp1192
S'5_37.jpeg'
p1193
a(lp1194
I448
aI448
a(lp1195
g38
aI35
aI161
aI395
aI386
aaaa(lp1196
S'1_14.jpeg'
p1197
a(lp1198
I448
aI448
a(lp1199
g21
aI2
aI56
aI211
aI327
aaaa(lp1200
S'2_27.jpeg'
p1201
a(lp1202
I448
aI448
a(lp1203
g16
aI66
aI1
aI388
aI331
aaaa(lp1204
S'2_99.jpeg'
p1205
a(lp1206
I448
aI448
a(lp1207
g16
aI9
aI16
aI333
aI367
aaaa(lp1208
S'4_79.jpeg'
p1209
a(lp1210
I448
aI448
a(lp1211
g6
aI194
aI97
aI403
aI352
aaaa(lp1212
S'0_8.jpeg'
p1213
a(lp1214
I448
aI448
a(lp1215
g67
aI95
aI99
aI398
aI414
aaaa(lp1216
S'1_7.jpeg'
p1217
a(lp1218
I448
aI448
a(lp1219
g21
aI72
aI62
aI373
aI387
aaaa(lp1220
S'1_9.jpeg'
p1221
a(lp1222
I448
aI448
a(lp1223
g21
aI1
aI103
aI208
aI362
aaaa(lp1224
S'5_59.jpeg'
p1225
a(lp1226
I448
aI448
a(lp1227
g38
aI107
aI138
aI381
aI305
aaaa(lp1228
S'1_3.jpeg'
p1229
a(lp1230
I448
aI448
a(lp1231
g21
aI52
aI67
aI391
aI380
aaaa(lp1232
S'2_70.jpeg'
p1233
a(lp1234
I448
aI448
a(lp1235
g16
aI3
aI18
aI218
aI377
aaaa(lp1236
S'3_50.jpeg'
p1237
a(lp1238
I448
aI448
a(lp1239
g11
aI97
aI170
aI354
aI411
aaaa(lp1240
S'3_35.jpeg'
p1241
a(lp1242
I448
aI448
a(lp1243
g11
aI81
aI55
aI358
aI338
aaaa(lp1244
S'4_35.jpeg'
p1245
a(lp1246
I448
aI448
a(lp1247
g6
aI166
aI95
aI392
aI319
aaaa(lp1248
S'0_60.jpeg'
p1249
a(lp1250
I448
aI448
a(lp1251
g67
aI36
aI87
aI345
aI402
aaaa(lp1252
S'2_36.jpeg'
p1253
a(lp1254
I448
aI448
a(lp1255
g16
aI134
aI21
aI447
aI396
aaaa(lp1256
S'1_44.jpeg'
p1257
a(lp1258
I448
aI448
a(lp1259
g21
aI11
aI63
aI259
aI326
aaaa(lp1260
S'2_21.jpeg'
p1261
a(lp1262
I448
aI448
a(lp1263
g16
aI33
aI4
aI349
aI319
aaaa(lp1264
S'4_80.jpeg'
p1265
a(lp1266
I448
aI448
a(lp1267
g6
aI194
aI90
aI431
aI331
aaaa(lp1268
S'2_15.jpeg'
p1269
a(lp1270
I448
aI448
a(lp1271
g16
aI2
aI46
aI297
aI387
aaaa(lp1272
S'0_4.jpeg'
p1273
a(lp1274
I448
aI448
a(lp1275
g67
aI102
aI99
aI385
aI406
aaaa(lp1276
S'0_7.jpeg'
p1277
a(lp1278
I448
aI448
a(lp1279
g67
aI70
aI94
aI391
aI415
aaaa(lp1280
S'2_100.jpeg'
p1281
a(lp1282
I448
aI448
a(lp1283
g16
aI13
aI32
aI340
aI360
aaaa(lp1284
S'0_98.jpeg'
p1285
a(lp1286
I448
aI448
a(lp1287
g67
aI36
aI98
aI357
aI424
aaaa(lp1288
S'1_29.jpeg'
p1289
a(lp1290
I448
aI448
a(lp1291
g21
aI7
aI49
aI264
aI320
aaaa(lp1292
S'4_18.jpeg'
p1293
a(lp1294
I448
aI448
a(lp1295
g6
aI16
aI93
aI242
aI333
aaaa(lp1296
S'5_2.jpeg'
p1297
a(lp1298
I448
aI448
a(lp1299
g38
aI123
aI71
aI312
aI400
aaaa(lp1300
S'1_81.jpeg'
p1301
a(lp1302
I448
aI448
a(lp1303
g21
aI98
aI164
aI320
aI385
aaaa(lp1304
S'4_16.jpeg'
p1305
a(lp1306
I448
aI448
a(lp1307
g6
aI9
aI99
aI232
aI347
aaaa(lp1308
S'4_3.jpeg'
p1309
a(lp1310
I448
aI448
a(lp1311
g6
aI81
aI143
aI294
aI357
aaaa(lp1312
S'4_61.jpeg'
p1313
a(lp1314
I448
aI448
a(lp1315
g6
aI124
aI127
aI362
aI362
aaaa(lp1316
S'3_100.jpeg'
p1317
a(lp1318
I448
aI448
a(lp1319
g11
aI228
aI126
aI446
aI358
aaaa(lp1320
S'3_96.jpeg'
p1321
a(lp1322
I448
aI448
a(lp1323
g11
aI203
aI158
aI448
aI395
aaaa(lp1324
S'5_55.jpeg'
p1325
a(lp1326
I448
aI448
a(lp1327
g38
aI77
aI139
aI360
aI305
aaaa(lp1328
S'4_40.jpeg'
p1329
a(lp1330
I448
aI448
a(lp1331
g6
aI183
aI92
aI397
aI307
aaaa(lp1332
S'4_44.jpeg'
p1333
a(lp1334
I448
aI448
a(lp1335
g6
aI180
aI90
aI397
aI304
aaaa(lp1336
S'2_16.jpeg'
p1337
a(lp1338
I448
aI448
a(lp1339
g16
aI4
aI55
aI294
aI375
aaaa(lp1340
S'3_76.jpeg'
p1341
a(lp1342
I448
aI448
a(lp1343
g11
aI217
aI53
aI447
aI302
aaaa(lp1344
S'3_31.jpeg'
p1345
a(lp1346
I448
aI448
a(lp1347
g11
aI94
aI75
aI347
aI323
aaaa(lp1348
S'0_45.jpeg'
p1349
a(lp1350
I448
aI448
a(lp1351
g67
aI59
aI97
aI347
aI425
aaaa(lp1352
S'4_42.jpeg'
p1353
a(lp1354
I448
aI448
a(lp1355
g6
aI187
aI90
aI387
aI302
aaaa(lp1356
S'4_47.jpeg'
p1357
a(lp1358
I448
aI448
a(lp1359
g6
aI178
aI90
aI395
aI285
aaaa(lp1360
S'2_59.jpeg'
p1361
a(lp1362
I448
aI448
a(lp1363
g16
aI3
aI11
aI203
aI372
aaaa(lp1364
S'0_63.jpeg'
p1365
a(lp1366
I448
aI448
a(lp1367
g67
aI43
aI84
aI329
aI407
aaaa(lp1368
S'3_60.jpeg'
p1369
a(lp1370
I448
aI448
a(lp1371
g11
aI121
aI185
aI385
aI433
aaaa(lp1372
S'0_55.jpeg'
p1373
a(lp1374
I448
aI448
a(lp1375
g67
aI60
aI99
aI349
aI410
aaaa(lp1376
S'5_86.jpeg'
p1377
a(lp1378
I448
aI448
a(lp1379
g38
aI48
aI56
aI324
aI400
aaaa(lp1380
S'5_19.jpeg'
p1381
a(lp1382
I448
aI448
a(lp1383
g38
aI93
aI127
aI304
aI432
aaaa(lp1384
S'0_68.jpeg'
p1385
a(lp1386
I448
aI448
a(lp1387
g67
aI35
aI80
aI335
aI413
aaaa(lp1388
S'5_25.jpeg'
p1389
a(lp1390
I448
aI448
a(lp1391
g38
aI93
aI167
aI369
aI391
aaaa(lp1392
S'5_76.jpeg'
p1393
a(lp1394
I448
aI448
a(lp1395
g38
aI28
aI64
aI282
aI420
aaaa(lp1396
S'5_28.jpeg'
p1397
a(lp1398
I448
aI448
a(lp1399
g38
aI88
aI160
aI358
aI382
aaaa(lp1400
S'5_43.jpeg'
p1401
a(lp1402
I448
aI448
a(lp1403
g38
aI40
aI160
aI407
aI367
aaaa(lp1404
S'3_67.jpeg'
p1405
a(lp1406
I448
aI448
a(lp1407
g11
aI208
aI113
aI447
aI374
aaaa(lp1408
S'4_60.jpeg'
p1409
a(lp1410
I448
aI448
a(lp1411
g6
aI133
aI122
aI362
aI358
aaaa(lp1412
S'2_75.jpeg'
p1413
a(lp1414
I448
aI448
a(lp1415
g16
aI39
aI58
aI291
aI411
aaaa(lp1416
S'3_44.jpeg'
p1417
a(lp1418
I448
aI448
a(lp1419
g11
aI71
aI77
aI350
aI351
aaaa(lp1420
S'2_69.jpeg'
p1421
a(lp1422
I448
aI448
a(lp1423
g16
aI1
aI20
aI214
aI388
aaaa(lp1424
S'2_34.jpeg'
p1425
a(lp1426
I448
aI448
a(lp1427
g16
aI92
aI26
aI448
aI419
aaaa(lp1428
S'1_90.jpeg'
p1429
a(lp1430
I448
aI448
a(lp1431
g21
aI144
aI113
aI365
aI364
aaaa(lp1432
S'0_10.jpeg'
p1433
a(lp1434
I448
aI448
a(lp1435
g67
aI78
aI78
aI383
aI423
aaaa(lp1436
S'2_14.jpeg'
p1437
a(lp1438
I448
aI448
a(lp1439
g16
aI2
aI64
aI294
aI380
aaaa(lp1440
S'5_48.jpeg'
p1441
a(lp1442
I448
aI448
a(lp1443
g38
aI81
aI137
aI355
aI306
aaaa(lp1444
S'4_73.jpeg'
p1445
a(lp1446
I448
aI448
a(lp1447
g6
aI157
aI194
aI377
aI431
aaaa(lp1448
S'3_98.jpeg'
p1449
a(lp1450
I448
aI448
a(lp1451
g11
aI218
aI149
aI448
aI373
aaaa(lp1452
S'5_50.jpeg'
p1453
a(lp1454
I448
aI448
a(lp1455
g38
aI73
aI132
aI353
aI306
aaaa(lp1456
S'2_79.jpeg'
p1457
a(lp1458
I448
aI448
a(lp1459
g16
aI40
aI72
aI282
aI397
aaaa(lp1460
S'2_96.jpeg'
p1461
a(lp1462
I448
aI448
a(lp1463
g16
aI23
aI35
aI343
aI378
aaaa(lp1464
S'1_1.jpeg'
p1465
a(lp1466
I448
aI448
a(lp1467
g21
aI71
aI64
aI381
aI386
aaaa(lp1468
S'5_60.jpeg'
p1469
a(lp1470
I448
aI448
a(lp1471
g38
aI113
aI130
aI397
aI305
aaaa(lp1472
S'3_72.jpeg'
p1473
a(lp1474
I448
aI448
a(lp1475
g11
aI206
aI55
aI448
aI344
aaaa(lp1476
S'5_61.jpeg'
p1477
a(lp1478
I448
aI448
a(lp1479
g38
aI125
aI135
aI395
aI296
aaaa(lp1480
S'4_63.jpeg'
p1481
a(lp1482
I448
aI448
a(lp1483
g6
aI137
aI121
aI375
aI374
aaaa(lp1484
S'5_88.jpeg'
p1485
a(lp1486
I448
aI448
a(lp1487
g38
aI48
aI40
aI328
aI391
aaaa(lp1488
S'0_13.jpeg'
p1489
a(lp1490
I448
aI448
a(lp1491
g67
aI74
aI101
aI408
aI407
aaaa(lp1492
S'3_64.jpeg'
p1493
a(lp1494
I448
aI448
a(lp1495
g11
aI133
aI238
aI363
aI448
aaaa(lp1496
S'3_66.jpeg'
p1497
a(lp1498
I448
aI448
a(lp1499
g11
aI217
aI130
aI448
aI380
aaaa(lp1500
S'3_92.jpeg'
p1501
a(lp1502
I448
aI448
a(lp1503
g11
aI202
aI118
aI448
aI369
aaaa(lp1504
S'3_51.jpeg'
p1505
a(lp1506
I448
aI448
a(lp1507
g11
aI96
aI169
aI366
aI423
aaaa(lp1508
S'5_24.jpeg'
p1509
a(lp1510
I448
aI448
a(lp1511
g38
aI84
aI161
aI354
aI387
aaaa(lp1512
S'1_51.jpeg'
p1513
a(lp1514
I448
aI448
a(lp1515
g21
aI7
aI65
aI284
aI333
aaaa(lp1516
S'3_3.jpeg'
p1517
a(lp1518
I448
aI448
a(lp1519
g11
aI70
aI88
aI379
aI412
aaaa(lp1520
S'5_52.jpeg'
p1521
a(lp1522
I448
aI448
a(lp1523
g38
aI77
aI140
aI351
aI304
aaaa(lp1524
S'2_47.jpeg'
p1525
a(lp1526
I448
aI448
a(lp1527
g16
aI33
aI54
aI278
aI439
aaaa(lp1528
S'4_69.jpeg'
p1529
a(lp1530
I448
aI448
a(lp1531
g6
aI132
aI187
aI387
aI418
aaaa(lp1532
S'3_33.jpeg'
p1533
a(lp1534
I448
aI448
a(lp1535
g11
aI89
aI65
aI350
aI331
aaaa(lp1536
S'2_45.jpeg'
p1537
a(lp1538
I448
aI448
a(lp1539
g16
aI55
aI39
aI276
aI436
aaaa(lp1540
S'3_42.jpeg'
p1541
a(lp1542
I448
aI448
a(lp1543
g11
aI74
aI78
aI342
aI335
aaaa(lp1544
S'2_72.jpeg'
p1545
a(lp1546
I448
aI448
a(lp1547
g16
aI35
aI58
aI281
aI387
aaaa(lp1548
S'4_51.jpeg'
p1549
a(lp1550
I448
aI448
a(lp1551
g6
aI135
aI64
aI383
aI317
aaaa(lp1552
S'2_55.jpeg'
p1553
a(lp1554
I448
aI448
a(lp1555
g16
aI1
aI4
aI205
aI368
aaaa(lp1556
S'1_40.jpeg'
p1557
a(lp1558
I448
aI448
a(lp1559
g21
aI10
aI76
aI259
aI336
aaaa(lp1560
S'1_69.jpeg'
p1561
a(lp1562
I448
aI448
a(lp1563
g21
aI240
aI162
aI448
aI420
aaaa(lp1564
S'0_92.jpeg'
p1565
a(lp1566
I448
aI448
a(lp1567
g67
aI46
aI91
aI346
aI407
aaaa(lp1568
S'5_58.jpeg'
p1569
a(lp1570
I448
aI448
a(lp1571
g38
aI94
aI129
aI375
aI309
aaaa(lp1572
S'5_80.jpeg'
p1573
a(lp1574
I448
aI448
a(lp1575
g38
aI26
aI69
aI305
aI423
aaaa(lp1576
S'0_99.jpeg'
p1577
a(lp1578
I448
aI448
a(lp1579
g67
aI56
aI109
aI351
aI421
aaaa(lp1580
S'0_22.jpeg'
p1581
a(lp1582
I448
aI448
a(lp1583
g67
aI51
aI76
aI367
aI401
aaaa(lp1584
S'5_20.jpeg'
p1585
a(lp1586
I448
aI448
a(lp1587
g38
aI110
aI130
aI305
aI435
aaaa(lp1588
S'2_31.jpeg'
p1589
a(lp1590
I448
aI448
a(lp1591
g16
aI33
aI63
aI402
aI413
aaaa(lp1592
S'5_8.jpeg'
p1593
a(lp1594
I448
aI448
a(lp1595
g38
aI122
aI74
aI319
aI403
aaaa(lp1596
S'0_83.jpeg'
p1597
a(lp1598
I448
aI448
a(lp1599
g67
aI9
aI103
aI316
aI425
aaaa(lp1600
S'2_61.jpeg'
p1601
a(lp1602
I448
aI448
a(lp1603
g16
aI3
aI17
aI208
aI377
aaaa(lp1604
S'1_79.jpeg'
p1605
a(lp1606
I448
aI448
a(lp1607
g21
aI86
aI171
aI316
aI395
aaaa(lp1608
S'1_82.jpeg'
p1609
a(lp1610
I448
aI448
a(lp1611
g21
aI108
aI167
aI326
aI387
aaaa(lp1612
S'0_86.jpeg'
p1613
a(lp1614
I448
aI448
a(lp1615
g67
aI39
aI108
aI333
aI410
aaaa(lp1616
S'5_56.jpeg'
p1617
a(lp1618
I448
aI448
a(lp1619
g38
aI78
aI139
aI372
aI304
aaaa(lp1620
S'1_66.jpeg'
p1621
a(lp1622
I448
aI448
a(lp1623
g21
aI252
aI169
aI448
aI424
aaaa(lp1624
S'3_81.jpeg'
p1625
a(lp1626
I448
aI448
a(lp1627
g11
aI234
aI44
aI447
aI292
aaaa(lp1628
S'4_9.jpeg'
p1629
a(lp1630
I448
aI448
a(lp1631
g6
aI123
aI78
aI355
aI323
aaaa(lp1632
S'1_52.jpeg'
p1633
a(lp1634
I448
aI448
a(lp1635
g21
aI18
aI63
aI290
aI332
aaaa(lp1636
S'0_28.jpeg'
p1637
a(lp1638
I448
aI448
a(lp1639
g67
aI74
aI89
aI364
aI413
aaaa(lp1640
S'0_23.jpeg'
p1641
a(lp1642
I448
aI448
a(lp1643
g67
aI55
aI70
aI378
aI407
aaaa(lp1644
S'2_17.jpeg'
p1645
a(lp1646
I448
aI448
a(lp1647
g16
aI4
aI47
aI300
aI370
aaaa(lp1648
S'0_27.jpeg'
p1649
a(lp1650
I448
aI448
a(lp1651
g67
aI56
aI85
aI370
aI400
aaaa(lp1652
S'0_78.jpeg'
p1653
a(lp1654
I448
aI448
a(lp1655
g67
aI25
aI97
aI326
aI418
aaaa(lp1656
S'2_11.jpeg'
p1657
a(lp1658
I448
aI448
a(lp1659
g16
aI1
aI56
aI288
aI392
aaaa(lp1660
S'2_64.jpeg'
p1661
a(lp1662
I448
aI448
a(lp1663
g16
aI2
aI18
aI210
aI389
aaaa(lp1664
S'2_87.jpeg'
p1665
a(lp1666
I448
aI448
a(lp1667
g16
aI2
aI59
aI211
aI406
aaaa(lp1668
S'3_69.jpeg'
p1669
a(lp1670
I448
aI448
a(lp1671
g11
aI204
aI96
aI448
aI361
aaaa(lp1672
S'5_17.jpeg'
p1673
a(lp1674
I448
aI448
a(lp1675
g38
aI97
aI127
aI301
aI432
aaaa(lp1676
S'2_46.jpeg'
p1677
a(lp1678
I448
aI448
a(lp1679
g16
aI41
aI49
aI291
aI428
aaaa(lp1680
S'0_17.jpeg'
p1681
a(lp1682
I448
aI448
a(lp1683
g67
aI54
aI84
aI356
aI407
aaaa(lp1684
S'2_73.jpeg'
p1685
a(lp1686
I448
aI448
a(lp1687
g16
aI34
aI56
aI304
aI381
aaaa(lp1688
S'1_26.jpeg'
p1689
a(lp1690
I448
aI448
a(lp1691
g21
aI6
aI44
aI264
aI316
aaaa(lp1692
S'3_63.jpeg'
p1693
a(lp1694
I448
aI448
a(lp1695
g11
aI103
aI202
aI403
aI450
aaaa(lp1696
S'1_83.jpeg'
p1697
a(lp1698
I448
aI448
a(lp1699
g21
aI137
aI119
aI378
aI373
aaaa(lp1700
S'1_62.jpeg'
p1701
a(lp1702
I448
aI448
a(lp1703
g21
aI244
aI158
aI446
aI419
aaaa(lp1704
S'2_84.jpeg'
p1705
a(lp1706
I448
aI448
a(lp1707
g16
aI2
aI79
aI185
aI409
aaaa(lp1708
S'3_90.jpeg'
p1709
a(lp1710
I448
aI448
a(lp1711
g11
aI253
aI48
aI447
aI296
aaaa(lp1712
S'4_75.jpeg'
p1713
a(lp1714
I448
aI448
a(lp1715
g6
aI152
aI197
aI386
aI419
aaaa(lp1716
S'3_32.jpeg'
p1717
a(lp1718
I448
aI448
a(lp1719
g11
aI89
aI64
aI354
aI327
aaaa(lp1720
S'3_24.jpeg'
p1721
a(lp1722
I448
aI448
a(lp1723
g11
aI105
aI82
aI352
aI324
aaaa(lp1724
S'2_58.jpeg'
p1725
a(lp1726
I448
aI448
a(lp1727
g16
aI6
aI9
aI209
aI363
aaaa(lp1728
S'5_81.jpeg'
p1729
a(lp1730
I448
aI448
a(lp1731
g38
aI35
aI70
aI307
aI416
aaaa(lp1732
S'1_13.jpeg'
p1733
a(lp1734
I448
aI448
a(lp1735
g21
aI2
aI80
aI206
aI339
aaaa(lp1736
S'3_30.jpeg'
p1737
a(lp1738
I448
aI448
a(lp1739
g11
aI89
aI66
aI343
aI329
aaaa(lp1740
S'2_51.jpeg'
p1741
a(lp1742
I448
aI448
a(lp1743
g16
aI2
aI15
aI231
aI382
aaaa(lp1744
S'4_94.jpeg'
p1745
a(lp1746
I448
aI448
a(lp1747
g6
aI103
aI29
aI357
aI284
aaaa(lp1748
S'0_38.jpeg'
p1749
a(lp1750
I448
aI448
a(lp1751
g67
aI60
aI90
aI347
aI427
aaaa(lp1752
S'5_5.jpeg'
p1753
a(lp1754
I448
aI448
a(lp1755
g38
aI127
aI58
aI309
aI400
aaaa(lp1756
S'5_47.jpeg'
p1757
a(lp1758
I448
aI448
a(lp1759
g38
aI82
aI146
aI364
aI303
aaaa(lp1760
S'4_30.jpeg'
p1761
a(lp1762
I448
aI448
a(lp1763
g6
aI123
aI74
aI354
aI311
aaaa(lp1764
S'4_90.jpeg'
p1765
a(lp1766
I448
aI448
a(lp1767
g6
aI153
aI10
aI403
aI284
aaaa(lp1768
S'1_12.jpeg'
p1769
a(lp1770
I448
aI448
a(lp1771
g21
aI3
aI84
aI204
aI349
aaaa(lp1772
S'1_94.jpeg'
p1773
a(lp1774
I448
aI448
a(lp1775
g21
aI149
aI109
aI375
aI361
aaaa(lp1776
S'3_7.jpeg'
p1777
a(lp1778
I448
aI448
a(lp1779
g11
aI62
aI61
aI369
aI412
aaaa(lp1780
S'1_28.jpeg'
p1781
a(lp1782
I448
aI448
a(lp1783
g21
aI10
aI48
aI274
aI318
aaaa(lp1784
S'5_45.jpeg'
p1785
a(lp1786
I448
aI448
a(lp1787
g38
aI84
aI147
aI367
aI307
aaaa(lp1788
S'0_67.jpeg'
p1789
a(lp1790
I448
aI448
a(lp1791
g67
aI27
aI82
aI339
aI414
aaaa(lp1792
S'1_76.jpeg'
p1793
a(lp1794
I448
aI448
a(lp1795
g21
aI96
aI188
aI323
aI414
aaaa(lp1796
S'5_12.jpeg'
p1797
a(lp1798
I448
aI448
a(lp1799
g38
aI102
aI121
aI309
aI429
aaaa(lp1800
S'4_21.jpeg'
p1801
a(lp1802
I448
aI448
a(lp1803
g6
aI121
aI97
aI330
aI325
aaaa(lp1804
S'2_4.jpeg'
p1805
a(lp1806
I448
aI448
a(lp1807
g16
aI46
aI13
aI406
aI371
aaaa(lp1808
S'2_32.jpeg'
p1809
a(lp1810
I448
aI448
a(lp1811
g16
aI55
aI57
aI420
aI423
aaaa(lp1812
S'0_20.jpeg'
p1813
a(lp1814
I448
aI448
a(lp1815
g67
aI36
aI98
aI361
aI395
aaaa(lp1816
S'4_36.jpeg'
p1817
a(lp1818
I448
aI448
a(lp1819
g6
aI184
aI81
aI402
aI323
aaaa(lp1820
S'0_94.jpeg'
p1821
a(lp1822
I448
aI448
a(lp1823
g67
aI44
aI86
aI347
aI413
aaaa(lp1824
S'4_25.jpeg'
p1825
a(lp1826
I448
aI448
a(lp1827
g6
aI67
aI88
aI296
aI308
aaaa(lp1828
S'0_59.jpeg'
p1829
a(lp1830
I448
aI448
a(lp1831
g67
aI60
aI99
aI345
aI405
aaaa(lp1832
S'4_89.jpeg'
p1833
a(lp1834
I448
aI448
a(lp1835
g6
aI166
aI19
aI405
aI273
aaaa(lp1836
S'4_68.jpeg'
p1837
a(lp1838
I448
aI448
a(lp1839
g6
aI133
aI195
aI370
aI420
aaaa(lp1840
S'3_54.jpeg'
p1841
a(lp1842
I448
aI448
a(lp1843
g11
aI122
aI155
aI382
aI391
aaaa(lp1844
S'5_74.jpeg'
p1845
a(lp1846
I448
aI448
a(lp1847
g38
aI166
aI4
aI427
aI415
aaaa(lp1848
S'4_19.jpeg'
p1849
a(lp1850
I448
aI448
a(lp1851
g6
aI28
aI91
aI249
aI331
aaaa(lp1852
S'0_84.jpeg'
p1853
a(lp1854
I448
aI448
a(lp1855
g67
aI27
aI116
aI315
aI414
aaaa(lp1856
S'0_44.jpeg'
p1857
a(lp1858
I448
aI448
a(lp1859
g67
aI58
aI116
aI354
aI422
aaaa(lp1860
S'0_16.jpeg'
p1861
a(lp1862
I448
aI448
a(lp1863
g67
aI28
aI74
aI380
aI407
aaaa(lp1864
S'2_3.jpeg'
p1865
a(lp1866
I448
aI448
a(lp1867
g16
aI55
aI13
aI400
aI381
aaaa(lp1868
S'1_39.jpeg'
p1869
a(lp1870
I448
aI448
a(lp1871
g21
aI8
aI69
aI260
aI335
aaaa(lp1872
S'1_93.jpeg'
p1873
a(lp1874
I448
aI448
a(lp1875
g21
aI144
aI119
aI365
aI364
aaaa(lp1876
S'2_67.jpeg'
p1877
a(lp1878
I448
aI448
a(lp1879
g16
aI1
aI17
aI204
aI386
aaaa(lp1880
S'2_13.jpeg'
p1881
a(lp1882
I448
aI448
a(lp1883
g16
aI1
aI61
aI294
aI387
aaaa(lp1884
S'4_86.jpeg'
p1885
a(lp1886
I448
aI448
a(lp1887
g6
aI191
aI50
aI423
aI284
aaaa(lp1888
S'4_33.jpeg'
p1889
a(lp1890
I448
aI448
a(lp1891
g6
aI142
aI82
aI378
aI313
aaaa(lp1892
S'3_25.jpeg'
p1893
a(lp1894
I448
aI448
a(lp1895
g11
aI97
aI85
aI358
aI325
aaaa(lp1896
S'0_96.jpeg'
p1897
a(lp1898
I448
aI448
a(lp1899
g67
aI53
aI105
aI342
aI410
aaaa(lp1900
S'1_100.jpeg'
p1901
a(lp1902
I448
aI448
a(lp1903
g21
aI130
aI77
aI375
aI334
aaaa(lp1904
S'5_75.jpeg'
p1905
a(lp1906
I448
aI448
a(lp1907
g38
aI148
aI10
aI418
aI416
aaaa(lp1908
S'4_52.jpeg'
p1909
a(lp1910
I448
aI448
a(lp1911
g6
aI140
aI62
aI384
aI304
aaaa(lp1912
S'5_7.jpeg'
p1913
a(lp1914
I448
aI448
a(lp1915
g38
aI114
aI72
aI314
aI400
aaaa(lp1916
S'3_85.jpeg'
p1917
a(lp1918
I448
aI448
a(lp1919
g11
aI250
aI50
aI448
aI299
aaaa(lp1920
S'0_43.jpeg'
p1921
a(lp1922
I448
aI448
a(lp1923
g67
aI56
aI110
aI345
aI416
aaaa(lp1924
S'4_10.jpeg'
p1925
a(lp1926
I448
aI448
a(lp1927
g6
aI103
aI76
aI313
aI336
aaaa(lp1928
S'3_22.jpeg'
p1929
a(lp1930
I448
aI448
a(lp1931
g11
aI103
aI79
aI356
aI334
aaaa(lp1932
S'5_16.jpeg'
p1933
a(lp1934
I448
aI448
a(lp1935
g38
aI105
aI128
aI305
aI435
aaaa(lp1936
S'5_33.jpeg'
p1937
a(lp1938
I448
aI448
a(lp1939
g38
aI35
aI181
aI392
aI400
aaaa(lp1940
S'2_19.jpeg'
p1941
a(lp1942
I448
aI448
a(lp1943
g16
aI5
aI52
aI295
aI379
aaaa(lp1944
S'5_69.jpeg'
p1945
a(lp1946
I448
aI448
a(lp1947
g38
aI181
aI6
aI434
aI386
aaaa(lp1948
S'4_13.jpeg'
p1949
a(lp1950
I448
aI448
a(lp1951
g6
aI26
aI99
aI268
aI335
aaaa(lp1952
S'2_77.jpeg'
p1953
a(lp1954
I448
aI448
a(lp1955
g16
aI42
aI62
aI278
aI384
aaaa(lp1956
S'4_74.jpeg'
p1957
a(lp1958
I448
aI448
a(lp1959
g6
aI156
aI186
aI377
aI418
aaaa(lp1960
S'5_82.jpeg'
p1961
a(lp1962
I448
aI448
a(lp1963
g38
aI43
aI73
aI307
aI425
aaaa(lp1964
S'4_2.jpeg'
p1965
a(lp1966
I448
aI448
a(lp1967
g6
aI80
aI135
aI300
aI350
aaaa(lp1968
S'1_11.jpeg'
p1969
a(lp1970
I448
aI448
a(lp1971
g21
aI1
aI96
aI197
aI358
aaaa(lp1972
S'4_50.jpeg'
p1973
a(lp1974
I448
aI448
a(lp1975
g6
aI111
aI59
aI387
aI318
aaaa(lp1976
S'3_62.jpeg'
p1977
a(lp1978
I448
aI448
a(lp1979
g11
aI138
aI200
aI364
aI436
aaaa(lp1980
S'2_81.jpeg'
p1981
a(lp1982
I448
aI448
a(lp1983
g16
aI2
aI69
aI178
aI408
aaaa(lp1984
S'5_57.jpeg'
p1985
a(lp1986
I448
aI448
a(lp1987
g38
aI80
aI137
aI362
aI302
aaaa(lp1988
S'1_23.jpeg'
p1989
a(lp1990
I448
aI448
a(lp1991
g21
aI4
aI35
aI260
aI315
aaaa(lp1992
S'2_2.jpeg'
p1993
a(lp1994
I448
aI448
a(lp1995
g16
aI50
aI12
aI404
aI380
aaaa(lp1996
S'4_70.jpeg'
p1997
a(lp1998
I448
aI448
a(lp1999
g6
aI145
aI192
aI375
aI422
aaaa(lp2000
S'2_6.jpeg'
p2001
a(lp2002
I448
aI448
a(lp2003
g16
aI47
aI10
aI408
aI389
aaaa(lp2004
S'1_88.jpeg'
p2005
a(lp2006
I448
aI448
a(lp2007
g21
aI144
aI127
aI374
aI365
aaaa(lp2008
S'3_18.jpeg'
p2009
a(lp2010
I448
aI448
a(lp2011
g11
aI102
aI40
aI425
aI394
aaaa(lp2012
S'0_42.jpeg'
p2013
a(lp2014
I448
aI448
a(lp2015
g67
aI57
aI105
aI353
aI423
aaaa(lp2016
S'3_20.jpeg'
p2017
a(lp2018
I448
aI448
a(lp2019
g11
aI95
aI76
aI352
aI326
aaaa(lp2020
S'5_15.jpeg'
p2021
a(lp2022
I448
aI448
a(lp2023
g38
aI106
aI123
aI301
aI432
aaaa(lp2024
S'0_73.jpeg'
p2025
a(lp2026
I448
aI448
a(lp2027
g67
aI48
aI103
aI330
aI394
aaaa(lp2028
S'2_7.jpeg'
p2029
a(lp2030
I448
aI448
a(lp2031
g16
aI33
aI15
aI408
aI377
aaaa(lp2032
S'1_38.jpeg'
p2033
a(lp2034
I448
aI448
a(lp2035
g21
aI3
aI63
aI266
aI350
aaaa(lp2036
S'2_40.jpeg'
p2037
a(lp2038
I448
aI448
a(lp2039
g16
aI132
aI1
aI447
aI374
aaaa(lp2040
S'4_15.jpeg'
p2041
a(lp2042
I448
aI448
a(lp2043
g6
aI10
aI70
aI225
aI330
aaaa(lp2044
S'0_57.jpeg'
p2045
a(lp2046
I448
aI448
a(lp2047
g67
aI58
aI106
aI342
aI413
aaaa(lp2048
S'1_59.jpeg'
p2049
a(lp2050
I448
aI448
a(lp2051
g21
aI230
aI148
aI448
aI416
aaaa(lp2052
S'5_93.jpeg'
p2053
a(lp2054
I448
aI448
a(lp2055
g38
aI54
aI31
aI331
aI383
aaaa(lp2056
S'5_91.jpeg'
p2057
a(lp2058
I448
aI448
a(lp2059
g38
aI50
aI36
aI335
aI378
aaaa(lp2060
S'0_19.jpeg'
p2061
a(lp2062
I448
aI448
a(lp2063
g67
aI55
aI93
aI366
aI410
aaaa(lp2064
S'4_29.jpeg'
p2065
a(lp2066
I448
aI448
a(lp2067
g6
aI107
aI81
aI324
aI313
aaaa(lp2068
S'4_49.jpeg'
p2069
a(lp2070
I448
aI448
a(lp2071
g6
aI141
aI67
aI369
aI298
aaaa(lp2072
S'1_65.jpeg'
p2073
a(lp2074
I448
aI448
a(lp2075
g21
aI259
aI163
aI447
aI428
aaaa(lp2076
S'0_93.jpeg'
p2077
a(lp2078
I448
aI448
a(lp2079
g67
aI49
aI84
aI330
aI401
aaaa(lp2080
S'3_58.jpeg'
p2081
a(lp2082
I448
aI448
a(lp2083
g11
aI126
aI144
aI382
aI394
aaaa(lp2084
S'4_27.jpeg'
p2085
a(lp2086
I448
aI448
a(lp2087
g6
aI77
aI76
aI334
aI320
aaaa(lp2088
S'5_14.jpeg'
p2089
a(lp2090
I448
aI448
a(lp2091
g38
aI97
aI123
aI301
aI436
aaaa(lp2092
S'1_55.jpeg'
p2093
a(lp2094
I448
aI448
a(lp2095
g21
aI24
aI75
aI297
aI330
aaaa(lp2096
S'1_20.jpeg'
p2097
a(lp2098
I448
aI448
a(lp2099
g21
aI5
aI26
aI251
aI303
aaaa(lp2100
S'1_84.jpeg'
p2101
a(lp2102
I448
aI448
a(lp2103
g21
aI141
aI122
aI366
aI368
aaaa(lp2104
S'1_78.jpeg'
p2105
a(lp2106
I448
aI448
a(lp2107
g21
aI92
aI175
aI316
aI406
aaaa(lp2108
S'5_53.jpeg'
p2109
a(lp2110
I448
aI448
a(lp2111
g38
aI78
aI139
aI353
aI316
aaaa(lp2112
S'3_65.jpeg'
p2113
a(lp2114
I448
aI448
a(lp2115
g11
aI133
aI263
aI377
aI449
aaaa(lp2116
S'4_22.jpeg'
p2117
a(lp2118
I448
aI448
a(lp2119
g6
aI109
aI93
aI325
aI349
aaaa(lp2120
S'2_86.jpeg'
p2121
a(lp2122
I448
aI448
a(lp2123
g16
aI1
aI73
aI199
aI411
aaaa(lp2124
S'4_97.jpeg'
p2125
a(lp2126
I448
aI448
a(lp2127
g6
aI67
aI84
aI320
aI365
aaaa(lp2128
S'4_48.jpeg'
p2129
a(lp2130
I448
aI448
a(lp2131
g6
aI88
aI66
aI365
aI307
aaaa(lp2132
S'5_10.jpeg'
p2133
a(lp2134
I448
aI448
a(lp2135
g38
aI122
aI68
aI310
aI398
aaaa(lp2136
S'0_40.jpeg'
p2137
a(lp2138
I448
aI448
a(lp2139
g67
aI61
aI101
aI351
aI425
aaaa(lp2140
S'1_91.jpeg'
p2141
a(lp2142
I448
aI448
a(lp2143
g21
aI145
aI122
aI370
aI365
aaaa(lp2144
S'1_16.jpeg'
p2145
a(lp2146
I448
aI448
a(lp2147
g21
aI1
aI41
aI226
aI314
aaaa(lp2148
S'0_5.jpeg'
p2149
a(lp2150
I448
aI448
a(lp2151
g67
aI96
aI84
aI388
aI412
aaaa(lp2152
S'2_78.jpeg'
p2153
a(lp2154
I448
aI448
a(lp2155
g16
aI40
aI64
aI273
aI385
aaaa(lp2156
S'2_71.jpeg'
p2157
a(lp2158
I448
aI448
a(lp2159
g16
aI34
aI55
aI300
aI374
aaaa(lp2160
S'0_29.jpeg'
p2161
a(lp2162
I448
aI448
a(lp2163
g67
aI53
aI72
aI365
aI408
aaaa(lp2164
S'1_58.jpeg'
p2165
a(lp2166
I448
aI448
a(lp2167
g21
aI15
aI63
aI289
aI326
aaaa(lp2168
S'5_41.jpeg'
p2169
a(lp2170
I448
aI448
a(lp2171
g38
aI42
aI156
aI407
aI384
aaaa(lp2172
S'0_70.jpeg'
p2173
a(lp2174
I448
aI448
a(lp2175
g67
aI47
aI98
aI334
aI405
aaaa(lp2176
S'1_15.jpeg'
p2177
a(lp2178
I448
aI448
a(lp2179
g21
aI2
aI52
aI220
aI324
aaaa(lp2180
S'3_87.jpeg'
p2181
a(lp2182
I448
aI448
a(lp2183
g11
aI251
aI57
aI447
aI297
aaaa(lp2184
S'2_37.jpeg'
p2185
a(lp2186
I448
aI448
a(lp2187
g16
aI142
aI13
aI448
aI388
aaaa(lp2188
S'5_62.jpeg'
p2189
a(lp2190
I448
aI448
a(lp2191
g38
aI133
aI131
aI404
aI299
aaaa(lp2192
S'5_99.jpeg'
p2193
a(lp2194
I448
aI448
a(lp2195
g38
aI29
aI56
aI324
aI398
aaaa(lp2196
S'3_61.jpeg'
p2197
a(lp2198
I448
aI448
a(lp2199
g11
aI123
aI187
aI362
aI422
aaaa(lp2200
S'0_80.jpeg'
p2201
a(lp2202
I448
aI448
a(lp2203
g67
aI24
aI96
aI321
aI417
aaaa(lp2204
S'3_45.jpeg'
p2205
a(lp2206
I448
aI448
a(lp2207
g11
aI85
aI86
aI343
aI325
aaaa(lp2208
S'4_39.jpeg'
p2209
a(lp2210
I448
aI448
a(lp2211
g6
aI200
aI91
aI396
aI307
aaaa(lp2212
S'5_23.jpeg'
p2213
a(lp2214
I448
aI448
a(lp2215
g38
aI95
aI158
aI353
aI393
aaaa(lp2216
S'1_2.jpeg'
p2217
a(lp2218
I448
aI448
a(lp2219
g21
aI63
aI60
aI378
aI392
aaaa(lp2220
S'1_30.jpeg'
p2221
a(lp2222
I448
aI448
a(lp2223
g21
aI8
aI51
aI267
aI327
aaaa(lp2224
S'1_75.jpeg'
p2225
a(lp2226
I448
aI448
a(lp2227
g21
aI96
aI191
aI313
aI421
aaaa(lp2228
S'5_39.jpeg'
p2229
a(lp2230
I448
aI448
a(lp2231
g38
aI50
aI163
aI403
aI385
aaaa(lp2232
S'2_12.jpeg'
p2233
a(lp2234
I448
aI448
a(lp2235
g16
aI5
aI60
aI290
aI375
aaaa(lp2236
S'4_95.jpeg'
p2237
a(lp2238
I448
aI448
a(lp2239
g6
aI76
aI40
aI340
aI310
aaaa(lp2240
S'3_4.jpeg'
p2241
a(lp2242
I448
aI448
a(lp2243
g11
aI70
aI96
aI371
aI397
aaaa(lp2244
S'4_12.jpeg'
p2245
a(lp2246
I448
aI448
a(lp2247
g6
aI53
aI97
aI279
aI323
aaaa(lp2248
S'3_91.jpeg'
p2249
a(lp2250
I448
aI448
a(lp2251
g11
aI210
aI116
aI447
aI355
aaaa(lp2252
S'5_65.jpeg'
p2253
a(lp2254
I448
aI448
a(lp2255
g38
aI156
aI13
aI423
aI430
aaaa(lp2256
S'1_96.jpeg'
p2257
a(lp2258
I448
aI448
a(lp2259
g21
aI135
aI73
aI377
aI336
aaaa(lp2260
S'4_59.jpeg'
p2261
a(lp2262
I448
aI448
a(lp2263
g6
aI125
aI118
aI387
aI364
aaaa(lp2264
S'0_31.jpeg'
p2265
a(lp2266
I448
aI448
a(lp2267
g67
aI70
aI85
aI369
aI405
aaaa(lp2268
S'4_93.jpeg'
p2269
a(lp2270
I448
aI448
a(lp2271
g6
aI115
aI28
aI361
aI269
aaaa(lp2272
S'1_72.jpeg'
p2273
a(lp2274
I448
aI448
a(lp2275
g21
aI77
aI197
aI324
aI432
aaaa(lp2276
S'3_23.jpeg'
p2277
a(lp2278
I448
aI448
a(lp2279
g11
aI94
aI84
aI354
aI342
aaaa(lp2280
S'3_95.jpeg'
p2281
a(lp2282
I448
aI448
a(lp2283
g11
aI217
aI147
aI448
aI384
aaaa(lp2284
S'2_65.jpeg'
p2285
a(lp2286
I448
aI448
a(lp2287
g16
aI2
aI15
aI211
aI376
aaaa(lp2288
S'3_74.jpeg'
p2289
a(lp2290
I448
aI448
a(lp2291
g11
aI243
aI33
aI448
aI298
aaaa(lp2292
S'4_66.jpeg'
p2293
a(lp2294
I448
aI448
a(lp2295
g6
aI141
aI137
aI369
aI370
aaaa(lp2296
S'3_99.jpeg'
p2297
a(lp2298
I448
aI448
a(lp2299
g11
aI235
aI143
aI448
aI361
aaaa(lp2300
S'1_45.jpeg'
p2301
a(lp2302
I448
aI448
a(lp2303
g21
aI14
aI68
aI265
aI309
aaaa(lp2304
S'1_42.jpeg'
p2305
a(lp2306
I448
aI448
a(lp2307
g21
aI13
aI69
aI265
aI335
aaaa(lp2308
S'4_54.jpeg'
p2309
a(lp2310
I448
aI448
a(lp2311
g6
aI133
aI38
aI388
aI299
aaaa(lp2312
S'0_74.jpeg'
p2313
a(lp2314
I448
aI448
a(lp2315
g67
aI40
aI96
aI327
aI395
aaaa(lp2316
S'0_71.jpeg'
p2317
a(lp2318
I448
aI448
a(lp2319
g67
aI37
aI96
aI335
aI408
aaaa(lp2320
S'3_70.jpeg'
p2321
a(lp2322
I448
aI448
a(lp2323
g11
aI201
aI91
aI447
aI350
aaaa(lp2324
S'2_25.jpeg'
p2325
a(lp2326
I448
aI448
a(lp2327
g16
aI44
aI4
aI382
aI319
aaaa(lp2328
S'1_61.jpeg'
p2329
a(lp2330
I448
aI448
a(lp2331
g21
aI251
aI160
aI447
aI428
aaaa(lp2332
S'2_88.jpeg'
p2333
a(lp2334
I448
aI448
a(lp2335
g16
aI1
aI58
aI226
aI383
aaaa(lp2336
S'3_77.jpeg'
p2337
a(lp2338
I448
aI448
a(lp2339
g11
aI211
aI56
aI448
aI329
aaaa(lp2340
S'3_43.jpeg'
p2341
a(lp2342
I448
aI448
a(lp2343
g11
aI70
aI83
aI343
aI346
aaaa(lp2344
S'4_28.jpeg'
p2345
a(lp2346
I448
aI448
a(lp2347
g6
aI101
aI78
aI316
aI308
aaaa(lp2348
S'1_54.jpeg'
p2349
a(lp2350
I448
aI448
a(lp2351
g21
aI22
aI64
aI288
aI337
aaaa(lp2352
S'4_92.jpeg'
p2353
a(lp2354
I448
aI448
a(lp2355
g6
aI133
aI16
aI389
aI295
aaaa(lp2356
S'1_49.jpeg'
p2357
a(lp2358
I448
aI448
a(lp2359
g21
aI12
aI63
aI260
aI321
aaaa(lp2360
S'0_26.jpeg'
p2361
a(lp2362
I448
aI448
a(lp2363
g67
aI69
aI97
aI380
aI410
aaaa(lp2364
S'4_58.jpeg'
p2365
a(lp2366
I448
aI448
a(lp2367
g6
aI122
aI121
aI359
aI350
aaaa(lp2368
S'5_66.jpeg'
p2369
a(lp2370
I448
aI448
a(lp2371
g38
aI176
aI8
aI423
aI407
aaaa(lp2372
S'1_63.jpeg'
p2373
a(lp2374
I448
aI448
a(lp2375
g21
aI253
aI161
aI449
aI423
aaaa(lp2376
S'5_87.jpeg'
p2377
a(lp2378
I448
aI448
a(lp2379
g38
aI46
aI49
aI324
aI403
aaaa(lp2380
S'2_80.jpeg'
p2381
a(lp2382
I448
aI448
a(lp2383
g16
aI42
aI71
aI280
aI383
aaaa(lp2384
S'0_36.jpeg'
p2385
a(lp2386
I448
aI448
a(lp2387
g67
aI59
aI102
aI362
aI424
aaaa(lp2388
S'3_59.jpeg'
p2389
a(lp2390
I448
aI448
a(lp2391
g11
aI140
aI173
aI376
aI405
aaaa(lp2392
S'3_52.jpeg'
p2393
a(lp2394
I448
aI448
a(lp2395
g11
aI108
aI165
aI360
aI408
aaaa(lp2396
S'5_21.jpeg'
p2397
a(lp2398
I448
aI448
a(lp2399
g38
aI108
aI130
aI303
aI423
aaaa(lp2400
S'4_5.jpeg'
p2401
a(lp2402
I448
aI448
a(lp2403
g6
aI54
aI122
aI302
aI350
aaaa(lp2404
S'5_72.jpeg'
p2405
a(lp2406
I448
aI448
a(lp2407
g38
aI171
aI5
aI429
aI394
aaaaa.